#include <math.h>
#include <stdio.h>
#include <stdlib.h>
#include <string.h>


int main()
{
	char input[100];
	int n;
	int len;
	scanf("%d", &n);
//	scanf("\n");
	for(; n>0; n--){
		scanf("%s", input);
		len = strlen(input);
		if ((input[len-2]=='e')&&(input[len-1]=='r'))
			input[len-2] = 0;
		if ((input[len-2]=='l')&&(input[len-1]=='y'))
			input[len-2] = 0;
		if ((input[len-3]=='i')&&(input[len-2]=='n')&&(input[len-1]=='g'))
			input[len-3] = 0;
		puts(input);
	}

	return 0;
}